ccopy_reg
_reconstructor
p1
(cnupic.frameworks.opf.clamodel
CLAModel
p2
c__builtin__
object
p3
NtRp4
(dp5
S'_CLAModel__numRunCalls'
p6
I0
sS'_predictedFieldIdx'
p7
NsS'_minLikelihoodThreshold'
p8
F0.0001
sS'_CLAModel__finishedLearning'
p9
I00
sS'_Model__inferenceType'
p10
S'TemporalMultiStep'
p11
sS'_Model__inferenceArgs'
p12
(dp13
sS'_netInfo'
p14
g1
(cnupic.frameworks.opf.clamodel
NetworkInfo
p15
g3
NtRp16
(dp17
S'net'
p18
NsS'statsCollectors'
p19
(lp20
sbsS'_hasCL'
p21
I01
sS'_hasSP'
p22
I01
sS'_classifierInputEncoder'
p23
NsS'_CLAModel__tpLearningEnabled'
p24
I01
sS'_Model__learningEnabled'
p25
I01
sS'_Model__inferenceEnabled'
p26
I01
sS'_anomalyInst'
p27
g1
(cnupic.algorithms.anomaly
Anomaly
p28
g3
NtRp29
(dp30
S'_movingAverage'
p31
NsS'_likelihood'
p32
NsS'_mode'
p33
S'pure'
p34
sS'_binaryThreshold'
p35
NsbsS'_CLAModel__trainSPNetOnlyIfRequested'
p36
I00
sS'_numPredictions'
p37
I0
sS'_maxPredictionsPerStep'
p38
I8
sS'_input'
p39
NsS'_CLAModel__spLearningEnabled'
p40
I01
sS'_predictedFieldName'
p41
NsS'_hasTP'
p42
I01
sS'_numFields'
p43
NsS'_CLAModel__restoringFromV1'
p44
I00
sb.